target datalayout = "e-m:e-p270:32:32-p271:32:32-p272:64:64-i64:64-i128:128-f80:128-n8:16:32:64-S128"
target triple = "x86_64-pc-linux-gnu"

%struct.reassembly_table = type { ptr, ptr, ptr, ptr, ptr }
%struct.reassembly_table_functions = type { ptr, ptr, ptr, ptr, ptr, ptr }

@proto_quic = internal global i32 0, align 4
@.str.359 = private unnamed_addr constant [10 x i8] c"QUIC IETF\00", align 1
@.str.360 = private unnamed_addr constant [5 x i8] c"QUIC\00", align 1
@.str.361 = private unnamed_addr constant [5 x i8] c"quic\00", align 1
@.str.362 = private unnamed_addr constant [31 x i8] c"reassemble_crypto_out_of_order\00", align 1
@.str.363 = private unnamed_addr constant [38 x i8] c"Reassemble out-of-order CRYPTO frames\00", align 1
@.str.364 = private unnamed_addr constant [120 x i8] c"Whether out-of-order CRYPTO frames should be buffered and reordered before passing them to the TLS handshake dissector.\00", align 1
@quic_crypto_out_of_order = internal global i8 1, align 1
@.str.365 = private unnamed_addr constant [22 x i8] c"gso_heur_min_dcid_len\00", align 1
@.str.366 = private unnamed_addr constant [57 x i8] c"Search for coalesced short header packets at DCID length\00", align 1
@.str.367 = private unnamed_addr constant [198 x i8] c"Heuristically search for coalesced QUIC packets with a short header (e.g., when Generic Segmentation Offload (GSO) or similar is used), if the DCID is at least this many bytes long (0 to disable). \00", align 1
@quic_gso_heur_dcid_len = internal global i32 8, align 4
@quic_handle = internal global ptr null, align 8
@.str.368 = private unnamed_addr constant [12 x i8] c"quic_follow\00", align 1
@quic_reassembly_table = internal global %struct.reassembly_table zeroinitializer, align 8
@quic_reassembly_table_functions = internal constant %struct.reassembly_table_functions { ptr @quic_stream_hash, ptr @quic_stream_equal, ptr @quic_stream_persistent_key, ptr @quic_stream_persistent_key, ptr @quic_stream_free_persistent_key, ptr @quic_stream_free_persistent_key }, align 8
@quic_crypto_reassembly_table = internal global %struct.reassembly_table zeroinitializer, align 8
@tcp_reassembly_table_functions = external constant %struct.reassembly_table_functions, align 8
@.str.369 = private unnamed_addr constant [11 x i8] c"quic.proto\00", align 1
@.str.370 = private unnamed_addr constant [14 x i8] c"QUIC Protocol\00", align 1
@quic_proto_dissector_table = internal global ptr null, align 8
@quic_follow_tap = internal global i32 0, align 4

; Function Attrs: null_pointer_is_valid sspstrong uwtable
define hidden void @proto_register_quic() #0 {
  %1 = alloca ptr, align 8
  %2 = alloca ptr, align 8
  call void @llvm.lifetime.start.p0(i64 8, ptr %1) #19
  call void @llvm.lifetime.start.p0(i64 8, ptr %2) #19
  %3 = call i32 @proto_register_protocol(ptr noundef @.str.359, ptr noundef @.str.360, ptr noundef @.str.361)
  store i32 %3, ptr @proto_quic, align 4
  %4 = load i32, ptr @proto_quic, align 4
  call void @proto_register_field_array(i32 noundef %4, ptr noundef @proto_register_quic.hf, i32 noundef 120)
  call void @proto_register_subtree_array(ptr noundef @proto_register_quic.ett, i32 noundef 11)
  %5 = load i32, ptr @proto_quic, align 4
  %6 = call ptr @expert_register_protocol(i32 noundef %5)
  store ptr %6, ptr %1, align 8
  %7 = load ptr, ptr %1, align 8
  call void @expert_register_field_array(ptr noundef %7, ptr noundef @proto_register_quic.ei, i32 noundef 9)
  %8 = load i32, ptr @proto_quic, align 4
  %9 = call ptr @prefs_register_protocol(i32 noundef %8, ptr noundef null)
  store ptr %9, ptr %2, align 8
  %10 = load ptr, ptr %2, align 8
  call void @prefs_register_bool_preference(ptr noundef %10, ptr noundef @.str.362, ptr noundef @.str.363, ptr noundef @.str.364, ptr noundef @quic_crypto_out_of_order)
  %11 = load ptr, ptr %2, align 8
  call void @prefs_register_uint_preference(ptr noundef %11, ptr noundef @.str.365, ptr noundef @.str.366, ptr noundef @.str.367, i32 noundef 10, ptr noundef @quic_gso_heur_dcid_len)
  %12 = load i32, ptr @proto_quic, align 4
  %13 = call ptr @register_dissector(ptr noundef @.str.361, ptr noundef @dissect_quic, i32 noundef %12)
  store ptr %13, ptr @quic_handle, align 8
  call void @register_init_routine(ptr noundef @quic_init)
  call void @register_cleanup_routine(ptr noundef @quic_cleanup)
  %14 = load i32, ptr @proto_quic, align 4
  call void @register_follow_stream(i32 noundef %14, ptr noundef @.str.368, ptr noundef @quic_follow_conv_filter, ptr noundef @quic_follow_index_filter, ptr noundef @udp_follow_address_filter, ptr noundef @udp_port_to_display, ptr noundef @follow_quic_tap_listener, ptr noundef @get_quic_connections_count, ptr noundef @quic_get_sub_stream_id)
  call void @reassembly_table_register(ptr noundef @quic_reassembly_table, ptr noundef @quic_reassembly_table_functions)
  call void @reassembly_table_register(ptr noundef @quic_crypto_reassembly_table, ptr noundef @tcp_reassembly_table_functions)
  %15 = load i32, ptr @proto_quic, align 4
  %16 = call ptr @register_dissector_table(ptr noundef @.str.369, ptr noundef @.str.370, i32 noundef %15, i32 noundef 26, i32 noundef 0)
  store ptr %16, ptr @quic_proto_dissector_table, align 8
  %17 = call i32 @register_tap(ptr noundef @.str.368)
  store i32 %17, ptr @quic_follow_tap, align 4
  call void @llvm.lifetime.end.p0(i64 8, ptr %2) #19
  call void @llvm.lifetime.end.p0(i64 8, ptr %1) #19
  ret void
}