; Function Attrs: null_pointer_is_valid sspstrong uwtable
define hidden void @proto_register_quic() local_unnamed_addr #0 {
  %1 = tail call i32 @proto_register_protocol(ptr noundef nonnull @.str.359, ptr noundef nonnull @.str.360, ptr noundef nonnull @.str.361)
  store i32 %1, ptr @proto_quic, align 4
  tail call void @proto_register_field_array(i32 noundef %1, ptr noundef nonnull @proto_register_quic.hf, i32 noundef 120)
  tail call void @proto_register_subtree_array(ptr noundef nonnull @proto_register_quic.ett, i32 noundef 11)
  %2 = load i32, ptr @proto_quic, align 4
  %3 = tail call ptr @expert_register_protocol(i32 noundef %2)
  tail call void @expert_register_field_array(ptr noundef %3, ptr noundef nonnull @proto_register_quic.ei, i32 noundef 9)
  %4 = load i32, ptr @proto_quic, align 4
  %5 = tail call ptr @prefs_register_protocol(i32 noundef %4, ptr noundef null)
  tail call void @prefs_register_bool_preference(ptr noundef %5, ptr noundef nonnull @.str.362, ptr noundef nonnull @.str.363, ptr noundef nonnull @.str.364, ptr noundef nonnull @quic_crypto_out_of_order)
  tail call void @prefs_register_uint_preference(ptr noundef %5, ptr noundef nonnull @.str.365, ptr noundef nonnull @.str.366, ptr noundef nonnull @.str.367, i32 noundef 10, ptr noundef nonnull @quic_gso_heur_dcid_len)
  %6 = load i32, ptr @proto_quic, align 4
  %7 = tail call ptr @register_dissector(ptr noundef nonnull @.str.361, ptr noundef nonnull @dissect_quic, i32 noundef %6)
  store ptr %7, ptr @quic_handle, align 8
  tail call void @register_init_routine(ptr noundef nonnull @quic_init)
  tail call void @register_cleanup_routine(ptr noundef nonnull @quic_cleanup)
  %8 = load i32, ptr @proto_quic, align 4
  tail call void @register_follow_stream(i32 noundef %8, ptr noundef nonnull @.str.368, ptr noundef nonnull @quic_follow_conv_filter, ptr noundef nonnull @quic_follow_index_filter, ptr noundef nonnull @udp_follow_address_filter, ptr noundef nonnull @udp_port_to_display, ptr noundef nonnull @follow_quic_tap_listener, ptr noundef nonnull @get_quic_connections_count, ptr noundef nonnull @quic_get_sub_stream_id)
  tail call void @reassembly_table_register(ptr noundef nonnull @quic_reassembly_table, ptr noundef nonnull @quic_reassembly_table_functions)
  tail call void @reassembly_table_register(ptr noundef nonnull @quic_crypto_reassembly_table, ptr noundef nonnull @tcp_reassembly_table_functions)
  %9 = load i32, ptr @proto_quic, align 4
  %10 = tail call ptr @register_dissector_table(ptr noundef nonnull @.str.369, ptr noundef nonnull @.str.370, i32 noundef %9, i32 noundef 26, i32 noundef 0)
  store ptr %10, ptr @quic_proto_dissector_table, align 8
  %11 = tail call i32 @register_tap(ptr noundef nonnull @.str.368)
  store i32 %11, ptr @quic_follow_tap, align 4
  ret void
}